target datalayout = "e-m:e-p270:32:32-p271:32:32-p272:64:64-i64:64-i128:128-f80:128-n8:16:32:64-S128"
target triple = "x86_64-pc-linux-gnu"

%struct.SDL_Mouse = type { ptr, ptr, ptr, ptr, ptr, ptr, ptr, ptr, ptr, ptr, ptr, ptr, ptr, ptr, i8, float, float, ptr, float, float, float, float, float, float, float, float, double, double, i8, i8, i8, i8, i8, i8, i8, i8, i64, i8, float, i8, float, i8, i32, i32, i8, i8, i8, i8, i8, i8, i8, i8, i8, ptr, i32, ptr, ptr, ptr, ptr, i8, ptr }
%struct.SDL_Rect = type { i32, i32, i32, i32 }
%struct.SDL_Window = type { i32, ptr, ptr, i32, i32, i32, i32, i32, i32, i32, i32, float, float, i32, i32, i64, i64, float, i8, i8, i32, i32, %struct.SDL_Rect, %struct.SDL_Rect, %struct.SDL_Rect, i8, i8, i8, %struct.SDL_DisplayMode, %struct.SDL_DisplayMode, %struct.SDL_HDROutputProperties, float, ptr, i8, i8, i8, i8, i8, i8, i8, i8, i8, i32, i32, i32, i32, %struct.SDL_Rect, i32, i8, %struct.SDL_Rect, i32, %struct.SDL_Rect, ptr, ptr, i32, float, i32, i32, ptr, ptr, ptr, ptr, ptr, ptr, ptr, ptr, ptr }
%struct.SDL_DisplayMode = type { i32, i32, i32, i32, float, float, i32, i32, ptr }
%struct.SDL_HDROutputProperties = type { float, float }

@SDL_mouse = internal global %struct.SDL_Mouse zeroinitializer, align 8

; Function Attrs: nounwind uwtable
define hidden void @SDL_PerformWarpMouseInWindow(ptr noundef %0, float noundef %1, float noundef %2, i1 noundef zeroext %3) #0 {
  %5 = alloca ptr, align 8
  %6 = alloca float, align 4
  %7 = alloca float, align 4
  %8 = alloca i8, align 1
  %9 = alloca ptr, align 8
  %10 = alloca i32, align 4
  store ptr %0, ptr %5, align 8
  store float %1, ptr %6, align 4
  store float %2, ptr %7, align 4
  %11 = zext i1 %3 to i8
  store i8 %11, ptr %8, align 1
  call void @llvm.lifetime.start.p0(i64 8, ptr %9) #7
  %12 = call ptr @SDL_GetMouse()
  store ptr %12, ptr %9, align 8
  %13 = load ptr, ptr %5, align 8
  %14 = icmp ne ptr %13, null
  br i1 %14, label %19, label %15

15:                                               ; preds = %4
  %16 = load ptr, ptr %9, align 8
  %17 = getelementptr inbounds nuw %struct.SDL_Mouse, ptr %16, i32 0, i32 17
  %18 = load ptr, ptr %17, align 8
  store ptr %18, ptr %5, align 8
  br label %19

19:                                               ; preds = %15, %4
  %20 = load ptr, ptr %5, align 8
  %21 = icmp ne ptr %20, null
  br i1 %21, label %23, label %22

22:                                               ; preds = %19
  store i32 1, ptr %10, align 4
  br label %84

23:                                               ; preds = %19
  %24 = load ptr, ptr %5, align 8
  %25 = getelementptr inbounds nuw %struct.SDL_Window, ptr %24, i32 0, i32 15
  %26 = load i64, ptr %25, align 8
  %27 = and i64 %26, 64
  %28 = icmp eq i64 %27, 64
  br i1 %28, label %29, label %30

29:                                               ; preds = %23
  store i32 1, ptr %10, align 4
  br label %84

30:                                               ; preds = %23
  %31 = load float, ptr %6, align 4
  %32 = load ptr, ptr %9, align 8
  %33 = getelementptr inbounds nuw %struct.SDL_Mouse, ptr %32, i32 0, i32 22
  store float %31, ptr %33, align 8
  %34 = load float, ptr %7, align 4
  %35 = load ptr, ptr %9, align 8
  %36 = getelementptr inbounds nuw %struct.SDL_Mouse, ptr %35, i32 0, i32 23
  store float %34, ptr %36, align 4
  %37 = load ptr, ptr %9, align 8
  %38 = getelementptr inbounds nuw %struct.SDL_Mouse, ptr %37, i32 0, i32 28
  store i8 0, ptr %38, align 8
  %39 = load ptr, ptr %9, align 8
  %40 = getelementptr inbounds nuw %struct.SDL_Mouse, ptr %39, i32 0, i32 29
  %41 = load i8, ptr %40, align 1, !range !3, !noundef !4
  %42 = trunc i8 %41 to i1
  br i1 %42, label %43, label %61

43:                                               ; preds = %30
  %44 = load i8, ptr %8, align 1, !range !3, !noundef !4
  %45 = trunc i8 %44 to i1
  br i1 %45, label %61, label %46

46:                                               ; preds = %43
  %47 = load ptr, ptr %9, align 8
  %48 = getelementptr inbounds nuw %struct.SDL_Mouse, ptr %47, i32 0, i32 30
  %49 = load i8, ptr %48, align 2, !range !3, !noundef !4
  %50 = trunc i8 %49 to i1
  br i1 %50, label %60, label %51

51:                                               ; preds = %46
  %52 = load float, ptr %6, align 4
  %53 = load ptr, ptr %9, align 8
  %54 = getelementptr inbounds nuw %struct.SDL_Mouse, ptr %53, i32 0, i32 18
  store float %52, ptr %54, align 8
  %55 = load float, ptr %7, align 4
  %56 = load ptr, ptr %9, align 8
  %57 = getelementptr inbounds nuw %struct.SDL_Mouse, ptr %56, i32 0, i32 19
  store float %55, ptr %57, align 4
  %58 = load ptr, ptr %9, align 8
  %59 = getelementptr inbounds nuw %struct.SDL_Mouse, ptr %58, i32 0, i32 28
  store i8 1, ptr %59, align 8
  store i32 1, ptr %10, align 4
  br label %84

60:                                               ; preds = %46
  br label %61

61:                                               ; preds = %60, %43, %30
  %62 = load ptr, ptr %9, align 8
  %63 = getelementptr inbounds nuw %struct.SDL_Mouse, ptr %62, i32 0, i32 5
  %64 = load ptr, ptr %63, align 8
  %65 = icmp ne ptr %64, null
  br i1 %65, label %66, label %79

66:                                               ; preds = %61
  %67 = load ptr, ptr %9, align 8
  %68 = getelementptr inbounds nuw %struct.SDL_Mouse, ptr %67, i32 0, i32 29
  %69 = load i8, ptr %68, align 1, !range !3, !noundef !4
  %70 = trunc i8 %69 to i1
  br i1 %70, label %79, label %71

71:                                               ; preds = %66
  %72 = load ptr, ptr %9, align 8
  %73 = getelementptr inbounds nuw %struct.SDL_Mouse, ptr %72, i32 0, i32 5
  %74 = load ptr, ptr %73, align 8
  %75 = load ptr, ptr %5, align 8
  %76 = load float, ptr %6, align 4
  %77 = load float, ptr %7, align 4
  %78 = call zeroext i1 %74(ptr noundef %75, float noundef %76, float noundef %77)
  br label %83

79:                                               ; preds = %66, %61
  %80 = load ptr, ptr %5, align 8
  %81 = load float, ptr %6, align 4
  %82 = load float, ptr %7, align 4
  call void @SDL_PrivateSendMouseMotion(i64 noundef 0, ptr noundef %80, i32 noundef 0, i1 noundef zeroext false, float noundef %81, float noundef %82)
  br label %83

83:                                               ; preds = %79, %71
  store i32 0, ptr %10, align 4
  br label %84

84:                                               ; preds = %83, %51, %29, %22
  call void @llvm.lifetime.end.p0(i64 8, ptr %9) #7
  %85 = load i32, ptr %10, align 4
  switch i32 %85, label %87 [
    i32 0, label %86
    i32 1, label %86
  ]

86:                                               ; preds = %84, %84
  ret void

87:                                               ; preds = %84
  unreachable
}

; Function Attrs: nounwind uwtable
define internal void @SDL_MaybeEnableWarpEmulation(ptr noundef %0, float noundef %1, float noundef %2) #0 {
  %4 = alloca ptr, align 8
  %5 = alloca float, align 4
  %6 = alloca float, align 4
  %7 = alloca ptr, align 8
  %8 = alloca float, align 4
  %9 = alloca float, align 4
  %10 = alloca i64, align 8
  %11 = alloca i32, align 4
  store ptr %0, ptr %4, align 8
  store float %1, ptr %5, align 4
  store float %2, ptr %6, align 4
  call void @llvm.lifetime.start.p0(i64 8, ptr %7) #7
  %12 = call ptr @SDL_GetMouse()
  store ptr %12, ptr %7, align 8
  %13 = load ptr, ptr %7, align 8
  %14 = getelementptr inbounds nuw %struct.SDL_Mouse, ptr %13, i32 0, i32 35
  %15 = load i8, ptr %14, align 1, !range !3, !noundef !4
  %16 = trunc i8 %15 to i1
  br i1 %16, label %99, label %17

17:                                               ; preds = %3
  %18 = load ptr, ptr %7, align 8
  %19 = getelementptr inbounds nuw %struct.SDL_Mouse, ptr %18, i32 0, i32 33
  %20 = load i8, ptr %19, align 1, !range !3, !noundef !4
  %21 = trunc i8 %20 to i1
  br i1 %21, label %22, label %99

22:                                               ; preds = %17
  %23 = load ptr, ptr %7, align 8
  %24 = getelementptr inbounds nuw %struct.SDL_Mouse, ptr %23, i32 0, i32 59
  %25 = load i8, ptr %24, align 8, !range !3, !noundef !4
  %26 = trunc i8 %25 to i1
  br i1 %26, label %99, label %27

27:                                               ; preds = %22
  %28 = load ptr, ptr %7, align 8
  %29 = getelementptr inbounds nuw %struct.SDL_Mouse, ptr %28, i32 0, i32 34
  %30 = load i8, ptr %29, align 2, !range !3, !noundef !4
  %31 = trunc i8 %30 to i1
  br i1 %31, label %99, label %32

32:                                               ; preds = %27
  %33 = load ptr, ptr %4, align 8
  %34 = icmp ne ptr %33, null
  br i1 %34, label %39, label %35

35:                                               ; preds = %32
  %36 = load ptr, ptr %7, align 8
  %37 = getelementptr inbounds nuw %struct.SDL_Mouse, ptr %36, i32 0, i32 17
  %38 = load ptr, ptr %37, align 8
  store ptr %38, ptr %4, align 8
  br label %39

39:                                               ; preds = %35, %32
  %40 = load ptr, ptr %4, align 8
  %41 = icmp ne ptr %40, null
  br i1 %41, label %42, label %96

42:                                               ; preds = %39
  call void @llvm.lifetime.start.p0(i64 4, ptr %8) #7
  %43 = load ptr, ptr %4, align 8
  %44 = getelementptr inbounds nuw %struct.SDL_Window, ptr %43, i32 0, i32 5
  %45 = load i32, ptr %44, align 8
  %46 = sitofp i32 %45 to float
  %47 = fdiv float %46, 2.000000e+00
  store float %47, ptr %8, align 4
  call void @llvm.lifetime.start.p0(i64 4, ptr %9) #7
  %48 = load ptr, ptr %4, align 8
  %49 = getelementptr inbounds nuw %struct.SDL_Window, ptr %48, i32 0, i32 6
  %50 = load i32, ptr %49, align 4
  %51 = sitofp i32 %50 to float
  %52 = fdiv float %51, 2.000000e+00
  store float %52, ptr %9, align 4
  %53 = load float, ptr %5, align 4
  %54 = load float, ptr %8, align 4
  %55 = call float @SDL_floorf_REAL(float noundef %54)
  %56 = fcmp oge float %53, %55
  br i1 %56, label %57, label %92

57:                                               ; preds = %42
  %58 = load float, ptr %5, align 4
  %59 = load float, ptr %8, align 4
  %60 = call float @SDL_ceilf_REAL(float noundef %59)
  %61 = fcmp ole float %58, %60
  br i1 %61, label %62, label %92

62:                                               ; preds = %57
  %63 = load float, ptr %6, align 4
  %64 = load float, ptr %9, align 4
  %65 = call float @SDL_floorf_REAL(float noundef %64)
  %66 = fcmp oge float %63, %65
  br i1 %66, label %67, label %92

67:                                               ; preds = %62
  %68 = load float, ptr %6, align 4
  %69 = load float, ptr %9, align 4
  %70 = call float @SDL_ceilf_REAL(float noundef %69)
  %71 = fcmp ole float %68, %70
  br i1 %71, label %72, label %92

72:                                               ; preds = %67
  call void @llvm.lifetime.start.p0(i64 8, ptr %10) #7
  %73 = call i64 @SDL_GetTicksNS_REAL()
  store i64 %73, ptr %10, align 8
  %74 = load i64, ptr %10, align 8
  %75 = load ptr, ptr %7, align 8
  %76 = getelementptr inbounds nuw %struct.SDL_Mouse, ptr %75, i32 0, i32 36
  %77 = load i64, ptr %76, align 8
  %78 = sub i64 %74, %77
  %79 = icmp ult i64 %78, 30000000
  br i1 %79, label %80, label %88

80:                                               ; preds = %72
  %81 = load ptr, ptr %7, align 8
  %82 = getelementptr inbounds nuw %struct.SDL_Mouse, ptr %81, i32 0, i32 34
  store i8 1, ptr %82, align 2
  %83 = call zeroext i1 @SDL_SetRelativeMouseMode(i1 noundef zeroext true)
  br i1 %83, label %87, label %84

84:                                               ; preds = %80
  %85 = load ptr, ptr %7, align 8
  %86 = getelementptr inbounds nuw %struct.SDL_Mouse, ptr %85, i32 0, i32 34
  store i8 0, ptr %86, align 2
  br label %87

87:                                               ; preds = %84, %80
  br label %88

88:                                               ; preds = %87, %72
  %89 = load i64, ptr %10, align 8
  %90 = load ptr, ptr %7, align 8
  %91 = getelementptr inbounds nuw %struct.SDL_Mouse, ptr %90, i32 0, i32 36
  store i64 %89, ptr %91, align 8
  store i32 1, ptr %11, align 4
  call void @llvm.lifetime.end.p0(i64 8, ptr %10) #7
  br label %93

92:                                               ; preds = %67, %62, %57, %42
  store i32 0, ptr %11, align 4
  br label %93

93:                                               ; preds = %92, %88
  call void @llvm.lifetime.end.p0(i64 4, ptr %9) #7
  call void @llvm.lifetime.end.p0(i64 4, ptr %8) #7
  %94 = load i32, ptr %11, align 4
  switch i32 %94, label %100 [
    i32 0, label %95
  ]

95:                                               ; preds = %93
  br label %96

96:                                               ; preds = %95, %39
  %97 = load ptr, ptr %7, align 8
  %98 = getelementptr inbounds nuw %struct.SDL_Mouse, ptr %97, i32 0, i32 36
  store i64 0, ptr %98, align 8
  br label %99

99:                                               ; preds = %96, %27, %22, %17, %3
  store i32 0, ptr %11, align 4
  br label %100

100:                                              ; preds = %99, %93
  call void @llvm.lifetime.end.p0(i64 8, ptr %7) #7
  %101 = load i32, ptr %11, align 4
  switch i32 %101, label %103 [
    i32 0, label %102
    i32 1, label %102
  ]

102:                                              ; preds = %100, %100
  ret void

103:                                              ; preds = %100
  unreachable
}

; Function Attrs: nounwind uwtable
define hidden ptr @SDL_GetMouse() #0 {
  ret ptr @SDL_mouse
}

; Function Attrs: nounwind uwtable
define hidden void @SDL_WarpMouseInWindow_REAL(ptr noundef %0, float noundef %1, float noundef %2) #0 {
  %4 = alloca ptr, align 8
  %5 = alloca float, align 4
  %6 = alloca float, align 4
  %7 = alloca ptr, align 8
  store ptr %0, ptr %4, align 8
  store float %1, ptr %5, align 4
  store float %2, ptr %6, align 4
  call void @llvm.lifetime.start.p0(i64 8, ptr %7) #7
  %8 = call ptr @SDL_GetMouse()
  store ptr %8, ptr %7, align 8
  %9 = load ptr, ptr %4, align 8
  %10 = load float, ptr %5, align 4
  %11 = load float, ptr %6, align 4
  call void @SDL_MaybeEnableWarpEmulation(ptr noundef %9, float noundef %10, float noundef %11)
  %12 = load ptr, ptr %4, align 8
  %13 = load float, ptr %5, align 4
  %14 = load float, ptr %6, align 4
  %15 = load ptr, ptr %7, align 8
  %16 = getelementptr inbounds nuw %struct.SDL_Mouse, ptr %15, i32 0, i32 34
  %17 = load i8, ptr %16, align 2, !range !3, !noundef !4
  %18 = trunc i8 %17 to i1
  call void @SDL_PerformWarpMouseInWindow(ptr noundef %12, float noundef %13, float noundef %14, i1 noundef zeroext %18)
  call void @llvm.lifetime.end.p0(i64 8, ptr %7) #7
  ret void
}