; Function Attrs: nounwind uwtable
define hidden void @SDL_WarpMouseInWindow_REAL(ptr noundef %0, float noundef %1, float noundef %2) local_unnamed_addr #0 {
  %4 = load i8, ptr getelementptr inbounds nuw (i8, ptr @SDL_mouse, i64 191), align 1, !range !3, !noundef !4
  %5 = trunc nuw i8 %4 to i1
  %6 = load i8, ptr getelementptr inbounds nuw (i8, ptr @SDL_mouse, i64 189), align 1, !range !3
  %7 = trunc nuw i8 %6 to i1
  %.not35.i = xor i1 %7, true
  %or.cond.not.i = select i1 %5, i1 true, i1 %.not35.i
  %8 = load i8, ptr getelementptr inbounds nuw (i8, ptr @SDL_mouse, i64 288), align 8, !range !3
  %9 = trunc nuw i8 %8 to i1
  %or.cond32.i = select i1 %or.cond.not.i, i1 true, i1 %9
  %10 = load i8, ptr getelementptr inbounds nuw (i8, ptr @SDL_mouse, i64 190), align 2, !range !3
  %11 = trunc nuw i8 %10 to i1
  %or.cond34.i = select i1 %or.cond32.i, i1 true, i1 %11
  %.pre11 = load ptr, ptr getelementptr inbounds nuw (i8, ptr @SDL_mouse, i64 128), align 8
  br i1 %or.cond34.i, label %SDL_MaybeEnableWarpEmulation.exit, label %12

12:                                               ; preds = %3
  %.not.i = icmp eq ptr %0, null
  %spec.select.i = select i1 %.not.i, ptr %.pre11, ptr %0
  %.not28.i = icmp eq ptr %spec.select.i, null
  br i1 %.not28.i, label %.sink.split.i, label %13

13:                                               ; preds = %12
  %14 = getelementptr inbounds nuw i8, ptr %spec.select.i, i64 32
  %15 = load i32, ptr %14, align 8
  %16 = sitofp i32 %15 to float
  %17 = fmul float %16, 5.000000e-01
  %18 = getelementptr inbounds nuw i8, ptr %spec.select.i, i64 36
  %19 = load i32, ptr %18, align 4
  %20 = sitofp i32 %19 to float
  %21 = fmul float %20, 5.000000e-01
  %22 = tail call float @SDL_floorf_REAL(float noundef %17) #13
  %23 = fcmp ult float %1, %22
  br i1 %23, label %.sink.split.i, label %24

24:                                               ; preds = %13
  %25 = tail call float @SDL_ceilf_REAL(float noundef %17) #13
  %26 = fcmp ugt float %1, %25
  br i1 %26, label %.sink.split.i, label %27

27:                                               ; preds = %24
  %28 = tail call float @SDL_floorf_REAL(float noundef %21) #13
  %29 = fcmp ult float %2, %28
  br i1 %29, label %.sink.split.i, label %30

30:                                               ; preds = %27
  %31 = tail call float @SDL_ceilf_REAL(float noundef %21) #13
  %32 = fcmp ugt float %2, %31
  br i1 %32, label %.sink.split.i, label %33

33:                                               ; preds = %30
  %34 = tail call i64 @SDL_GetTicksNS_REAL() #13
  %35 = load i64, ptr getelementptr inbounds nuw (i8, ptr @SDL_mouse, i64 192), align 8
  %36 = sub i64 %34, %35
  %37 = icmp ult i64 %36, 30000000
  br i1 %37, label %38, label %.sink.split.i

38:                                               ; preds = %33
  store i8 1, ptr getelementptr inbounds nuw (i8, ptr @SDL_mouse, i64 190), align 2
  %39 = tail call zeroext i1 @SDL_SetRelativeMouseMode(i1 noundef zeroext true)
  br i1 %39, label %.sink.split.i, label %40

40:                                               ; preds = %38
  store i8 0, ptr getelementptr inbounds nuw (i8, ptr @SDL_mouse, i64 190), align 2
  br label %.sink.split.i

.sink.split.i:                                    ; preds = %40, %38, %33, %30, %27, %24, %13, %12
  %.sink.i = phi i64 [ %34, %38 ], [ %34, %40 ], [ %34, %33 ], [ 0, %30 ], [ 0, %27 ], [ 0, %24 ], [ 0, %13 ], [ 0, %12 ]
  store i64 %.sink.i, ptr getelementptr inbounds nuw (i8, ptr @SDL_mouse, i64 192), align 8
  %.pre = load i8, ptr getelementptr inbounds nuw (i8, ptr @SDL_mouse, i64 190), align 2, !range !3
  %.pre10 = load ptr, ptr getelementptr inbounds nuw (i8, ptr @SDL_mouse, i64 128), align 8
  br label %SDL_MaybeEnableWarpEmulation.exit

SDL_MaybeEnableWarpEmulation.exit:                ; preds = %3, %.sink.split.i
  %41 = phi ptr [ %.pre11, %3 ], [ %.pre10, %.sink.split.i ]
  %42 = phi i8 [ %10, %3 ], [ %.pre, %.sink.split.i ]
  %43 = trunc nuw i8 %42 to i1
  %.not28.i7 = icmp eq ptr %0, null
  %spec.select.i8 = select i1 %.not28.i7, ptr %41, ptr %0
  %.not29.i = icmp eq ptr %spec.select.i8, null
  br i1 %.not29.i, label %SDL_PerformWarpMouseInWindow.exit, label %44

44:                                               ; preds = %SDL_MaybeEnableWarpEmulation.exit
  %45 = getelementptr inbounds nuw i8, ptr %spec.select.i8, i64 72
  %46 = load i64, ptr %45, align 8
  %47 = and i64 %46, 64
  %.not30.i = icmp eq i64 %47, 0
  br i1 %.not30.i, label %48, label %SDL_PerformWarpMouseInWindow.exit

48:                                               ; preds = %44
  store float %1, ptr getelementptr inbounds nuw (i8, ptr @SDL_mouse, i64 152), align 8
  store float %2, ptr getelementptr inbounds nuw (i8, ptr @SDL_mouse, i64 156), align 4
  store i8 0, ptr getelementptr inbounds nuw (i8, ptr @SDL_mouse, i64 184), align 8
  %49 = load i8, ptr getelementptr inbounds nuw (i8, ptr @SDL_mouse, i64 185), align 1, !range !3, !noundef !4
  %50 = trunc nuw i8 %49 to i1
  %.not.i9 = xor i1 %50, true
  %or.cond.i = or i1 %43, %.not.i9
  %51 = load i8, ptr getelementptr inbounds nuw (i8, ptr @SDL_mouse, i64 186), align 2, !range !3
  %52 = trunc nuw i8 %51 to i1
  %or.cond33.i = select i1 %or.cond.i, i1 true, i1 %52
  br i1 %or.cond33.i, label %54, label %53

53:                                               ; preds = %48
  store float %1, ptr getelementptr inbounds nuw (i8, ptr @SDL_mouse, i64 136), align 8
  store float %2, ptr getelementptr inbounds nuw (i8, ptr @SDL_mouse, i64 140), align 4
  store i8 1, ptr getelementptr inbounds nuw (i8, ptr @SDL_mouse, i64 184), align 8
  br label %SDL_PerformWarpMouseInWindow.exit

54:                                               ; preds = %48
  %55 = load ptr, ptr getelementptr inbounds nuw (i8, ptr @SDL_mouse, i64 40), align 8
  %.not31.i = icmp eq ptr %55, null
  %or.cond35.i = or i1 %.not31.i, %50
  br i1 %or.cond35.i, label %58, label %56

56:                                               ; preds = %54
  %57 = tail call zeroext i1 %55(ptr noundef nonnull %spec.select.i8, float noundef %1, float noundef %2) #13
  br label %SDL_PerformWarpMouseInWindow.exit

58:                                               ; preds = %54
  tail call fastcc void @SDL_PrivateSendMouseMotion(i64 noundef 0, ptr noundef nonnull %spec.select.i8, i32 noundef 0, i1 noundef zeroext false, float noundef %1, float noundef %2)
  br label %SDL_PerformWarpMouseInWindow.exit

SDL_PerformWarpMouseInWindow.exit:                ; preds = %SDL_MaybeEnableWarpEmulation.exit, %44, %53, %56, %58
  ret void
}